; Function Attrs: mustprogress uwtable
define void @_ZN5folly6fibers5Baton10postThreadEv(ptr noundef nonnull align 8 dereferenceable(8) %0) local_unnamed_addr #0 align 2 personality ptr @__gxx_personality_v0 {
  %2 = cmpxchg ptr %0, i64 -3, i64 -1 seq_cst seq_cst, align 8
  %3 = extractvalue { i64, i1 } %2, 1
  br i1 %3, label %4, label %_ZNSt13__atomic_baseIlE23compare_exchange_strongERllSt12memory_orderS2_.exit

4:                                                ; preds = %1
  %5 = tail call noundef i32 @_ZN5folly6detail13futexWakeImplEPKSt6atomicIjEij(ptr noundef nonnull %0, i32 noundef 1, i32 noundef -1)
  br label %_ZNSt13__atomic_baseIlE23compare_exchange_strongERllSt12memory_orderS2_.exit

_ZNSt13__atomic_baseIlE23compare_exchange_strongERllSt12memory_orderS2_.exit: ; preds = %1, %4
  ret void
}